; Function Attrs: mustprogress nounwind uwtable
define internal void @_ZN3gmx15analysismodules12_GLOBAL__N_121IndexFileWriterModuleD2Ev(ptr noundef nonnull align 8 dereferenceable(81) %0) unnamed_addr #5 align 2 personality ptr @__gxx_personality_v0 {
  store ptr getelementptr inbounds inrange(-16, 80) ({ [12 x ptr] }, ptr @_ZTVN3gmx15analysismodules12_GLOBAL__N_121IndexFileWriterModuleE, i64 0, i32 0, i64 2), ptr %0, align 8
  %2 = getelementptr inbounds i8, ptr %0, i64 64
  %3 = load ptr, ptr %2, align 8
  %.not.i = icmp eq ptr %3, null
  br i1 %.not.i, label %_ZN3gmx15analysismodules12_GLOBAL__N_121IndexFileWriterModule9closeFileEv.exit, label %4

4:                                                ; preds = %1
  %5 = invoke noundef i32 @_Z14gmx_fio_fcloseP8_IO_FILE(ptr noundef nonnull %3)
          to label %.noexc unwind label %13

.noexc:                                           ; preds = %4
  store ptr null, ptr %2, align 8
  br label %_ZN3gmx15analysismodules12_GLOBAL__N_121IndexFileWriterModule9closeFileEv.exit

_ZN3gmx15analysismodules12_GLOBAL__N_121IndexFileWriterModule9closeFileEv.exit: ; preds = %.noexc, %1
  %6 = getelementptr inbounds i8, ptr %0, i64 40
  %7 = load ptr, ptr %6, align 8
  %8 = getelementptr inbounds i8, ptr %0, i64 48
  %9 = load ptr, ptr %8, align 8
  %.not4.i.i.i.i = icmp eq ptr %7, %9
  br i1 %.not4.i.i.i.i, label %_ZSt8_DestroyIPN3gmx15analysismodules12_GLOBAL__N_121IndexFileWriterModule9GroupInfoES4_EvT_S6_RSaIT0_E.exit.i, label %.lr.ph.i.i.i.i

.lr.ph.i.i.i.i:                                   ; preds = %_ZN3gmx15analysismodules12_GLOBAL__N_121IndexFileWriterModule9closeFileEv.exit, %.lr.ph.i.i.i.i
  %.05.i.i.i.i = phi ptr [ %10, %.lr.ph.i.i.i.i ], [ %7, %_ZN3gmx15analysismodules12_GLOBAL__N_121IndexFileWriterModule9closeFileEv.exit ]
  tail call void @_ZNSt7__cxx1112basic_stringIcSt11char_traitsIcESaIcEED1Ev(ptr noundef nonnull align 8 dereferenceable(32) %.05.i.i.i.i) #22
  %10 = getelementptr inbounds i8, ptr %.05.i.i.i.i, i64 40
  %.not.i.i.i.i = icmp eq ptr %10, %9
  br i1 %.not.i.i.i.i, label %_ZSt8_DestroyIPN3gmx15analysismodules12_GLOBAL__N_121IndexFileWriterModule9GroupInfoES4_EvT_S6_RSaIT0_E.exitthread-pre-split.i, label %.lr.ph.i.i.i.i, !llvm.loop !44

_ZSt8_DestroyIPN3gmx15analysismodules12_GLOBAL__N_121IndexFileWriterModule9GroupInfoES4_EvT_S6_RSaIT0_E.exitthread-pre-split.i: ; preds = %.lr.ph.i.i.i.i
  %.val.pr.i = load ptr, ptr %6, align 8
  br label %_ZSt8_DestroyIPN3gmx15analysismodules12_GLOBAL__N_121IndexFileWriterModule9GroupInfoES4_EvT_S6_RSaIT0_E.exit.i

_ZSt8_DestroyIPN3gmx15analysismodules12_GLOBAL__N_121IndexFileWriterModule9GroupInfoES4_EvT_S6_RSaIT0_E.exit.i: ; preds = %_ZSt8_DestroyIPN3gmx15analysismodules12_GLOBAL__N_121IndexFileWriterModule9GroupInfoES4_EvT_S6_RSaIT0_E.exitthread-pre-split.i, %_ZN3gmx15analysismodules12_GLOBAL__N_121IndexFileWriterModule9closeFileEv.exit
  %.val.i = phi ptr [ %.val.pr.i, %_ZSt8_DestroyIPN3gmx15analysismodules12_GLOBAL__N_121IndexFileWriterModule9GroupInfoES4_EvT_S6_RSaIT0_E.exitthread-pre-split.i ], [ %7, %_ZN3gmx15analysismodules12_GLOBAL__N_121IndexFileWriterModule9closeFileEv.exit ]
  %.not.i.i.i = icmp eq ptr %.val.i, null
  br i1 %.not.i.i.i, label %_ZNSt6vectorIN3gmx15analysismodules12_GLOBAL__N_121IndexFileWriterModule9GroupInfoESaIS4_EED2Ev.exit, label %11

11:                                               ; preds = %_ZSt8_DestroyIPN3gmx15analysismodules12_GLOBAL__N_121IndexFileWriterModule9GroupInfoES4_EvT_S6_RSaIT0_E.exit.i
  tail call void @_ZdlPv(ptr noundef nonnull %.val.i) #25
  br label %_ZNSt6vectorIN3gmx15analysismodules12_GLOBAL__N_121IndexFileWriterModule9GroupInfoESaIS4_EED2Ev.exit

_ZNSt6vectorIN3gmx15analysismodules12_GLOBAL__N_121IndexFileWriterModule9GroupInfoESaIS4_EED2Ev.exit: ; preds = %_ZSt8_DestroyIPN3gmx15analysismodules12_GLOBAL__N_121IndexFileWriterModule9GroupInfoES4_EvT_S6_RSaIT0_E.exit.i, %11
  %12 = getelementptr inbounds i8, ptr %0, i64 8
  tail call void @_ZNSt7__cxx1112basic_stringIcSt11char_traitsIcESaIcEED1Ev(ptr noundef nonnull align 8 dereferenceable(32) %12) #22
  ret void

13:                                               ; preds = %4
  %14 = landingpad { ptr, i32 }
          catch ptr null
  %15 = extractvalue { ptr, i32 } %14, 0
  tail call void @__clang_call_terminate(ptr %15) #24
  unreachable
}